(dp0
Vengine
p1
S'pdflatex'
p2
sVpackages
p3
c__builtin__
set
p4
((lp5
Vpgf
p6
aVhyperref
p7
aVmulticol
p8
aVgeometry
p9
aVfancyvrb
p10
aVrelsize
p11
aVfontenc
p12
aVgraphicx
p13
aVlongtable
p14
atp15
Rp16
sVfiles_with_guttermarks
p17
g4
((lp18
S'lab.tex'
p19
atp20
Rp21
sVsynctex
p22
I01
s.